target datalayout = "e-m:e-p270:32:32-p271:32:32-p272:64:64-i64:64-i128:128-f80:128-n8:16:32:64-S128"
target triple = "x86_64-pc-linux-gnu"

%union.pthread_mutex_t = type { %struct.__pthread_mutex_s }
%struct.__pthread_mutex_s = type { i32, i32, i32, i32, i32, i16, i16, %struct.__pthread_internal_list }
%struct.__pthread_internal_list = type { ptr, ptr }
%union.pthread_cond_t = type { %struct.__pthread_cond_s }
%struct.__pthread_cond_s = type { %union.__atomic_wide_counter, %union.__atomic_wide_counter, [2 x i32], [2 x i32], i32, i32, [2 x i32] }
%union.__atomic_wide_counter = type { i64 }

@hashpower = dso_local global i32 16, align 4
@maintenance_lock = internal global %union.pthread_mutex_t zeroinitializer, align 8
@maintenance_cond = internal global %union.pthread_cond_t zeroinitializer, align 8

; Function Attrs: nounwind uwtable
define dso_local void @assoc_start_expand(i64 noundef %0) #0 {
  %2 = alloca i64, align 8
  store i64 %0, ptr %2, align 8, !tbaa !21
  %3 = call i32 @pthread_mutex_trylock(ptr noundef @maintenance_lock) #9
  %4 = icmp eq i32 %3, 0
  br i1 %4, label %5, label %20

5:                                                ; preds = %1
  %6 = load i64, ptr %2, align 8, !tbaa !21
  %7 = load i32, ptr @hashpower, align 4, !tbaa !4
  %8 = zext i32 %7 to i64
  %9 = shl i64 1, %8
  %10 = mul i64 %9, 3
  %11 = udiv i64 %10, 2
  %12 = icmp ugt i64 %6, %11
  br i1 %12, label %13, label %18

13:                                               ; preds = %5
  %14 = load i32, ptr @hashpower, align 4, !tbaa !4
  %15 = icmp ult i32 %14, 32
  br i1 %15, label %16, label %18

16:                                               ; preds = %13
  %17 = call i32 @pthread_cond_signal(ptr noundef @maintenance_cond) #9
  br label %18

18:                                               ; preds = %16, %13, %5
  %19 = call i32 @pthread_mutex_unlock(ptr noundef @maintenance_lock) #9
  br label %20

20:                                               ; preds = %18, %1
  ret void
}