; Function Attrs: nounwind uwtable
define dso_local void @assoc_start_expand(i64 noundef %0) local_unnamed_addr #0 {
  %2 = tail call i32 @pthread_mutex_trylock(ptr noundef nonnull @maintenance_lock) #18
  %3 = icmp eq i32 %2, 0
  br i1 %3, label %4, label %15

4:                                                ; preds = %1
  %5 = load i32, ptr @hashpower, align 4, !tbaa !4
  %6 = zext nneg i32 %5 to i64
  %7 = shl i64 3, %6
  %8 = lshr i64 %7, 1
  %9 = icmp ugt i64 %0, %8
  %10 = icmp ult i32 %5, 32
  %or.cond = and i1 %10, %9
  br i1 %or.cond, label %11, label %13

11:                                               ; preds = %4
  %12 = tail call i32 @pthread_cond_signal(ptr noundef nonnull @maintenance_cond) #18
  br label %13

13:                                               ; preds = %11, %4
  %14 = tail call i32 @pthread_mutex_unlock(ptr noundef nonnull @maintenance_lock) #18
  br label %15

15:                                               ; preds = %13, %1
  ret void
}